target datalayout = "e-m:e-p270:32:32-p271:32:32-p272:64:64-i64:64-i128:128-f80:128-n8:16:32:64-S128"
target triple = "x86_64-unknown-linux-gnu"

%"class.std::__shared_count" = type { ptr }
%"class.std::shared_ptr.22" = type { %"class.std::__shared_ptr.23" }
%"class.std::__shared_ptr.23" = type { ptr, %"class.std::__shared_count" }
%"class.rocksdb::(anonymous namespace)::FastLocalBloomBitsBuilder" = type <{ %"class.rocksdb::(anonymous namespace)::XXPH3FilterBitsBuilder", i32, [4 x i8] }>
%"class.rocksdb::(anonymous namespace)::XXPH3FilterBitsBuilder" = type { %"class.rocksdb::BuiltinFilterBitsBuilder", ptr, %"class.std::shared_ptr.22", %"class.std::deque", i8, %"struct.rocksdb::(anonymous namespace)::XXPH3FilterBitsBuilder::HashEntriesInfo" }
%"class.rocksdb::BuiltinFilterBitsBuilder" = type { %"class.rocksdb::FilterBitsBuilder" }
%"class.rocksdb::FilterBitsBuilder" = type { ptr }
%"class.std::deque" = type { %"class.std::_Deque_base" }
%"class.std::_Deque_base" = type { %"struct.std::_Deque_base<std::unique_ptr<rocksdb::CacheReservationManager::CacheReservationHandle>, std::allocator<std::unique_ptr<rocksdb::CacheReservationManager::CacheReservationHandle>>>::_Deque_impl" }
%"struct.std::_Deque_base<std::unique_ptr<rocksdb::CacheReservationManager::CacheReservationHandle>, std::allocator<std::unique_ptr<rocksdb::CacheReservationManager::CacheReservationHandle>>>::_Deque_impl" = type { %"struct.std::_Deque_base<std::unique_ptr<rocksdb::CacheReservationManager::CacheReservationHandle>, std::allocator<std::unique_ptr<rocksdb::CacheReservationManager::CacheReservationHandle>>>::_Deque_impl_data" }
%"struct.std::_Deque_base<std::unique_ptr<rocksdb::CacheReservationManager::CacheReservationHandle>, std::allocator<std::unique_ptr<rocksdb::CacheReservationManager::CacheReservationHandle>>>::_Deque_impl_data" = type { ptr, i64, %"struct.std::_Deque_iterator", %"struct.std::_Deque_iterator" }
%"struct.std::_Deque_iterator" = type { ptr, ptr, ptr, ptr }
%"struct.rocksdb::(anonymous namespace)::XXPH3FilterBitsBuilder::HashEntriesInfo" = type { %"class.std::deque.31", %"class.std::deque", i64 }
%"class.std::deque.31" = type { %"class.std::_Deque_base.32" }
%"class.std::_Deque_base.32" = type { %"struct.std::_Deque_base<unsigned long, std::allocator<unsigned long>>::_Deque_impl" }
%"struct.std::_Deque_base<unsigned long, std::allocator<unsigned long>>::_Deque_impl" = type { %"struct.std::_Deque_base<unsigned long, std::allocator<unsigned long>>::_Deque_impl_data" }
%"struct.std::_Deque_base<unsigned long, std::allocator<unsigned long>>::_Deque_impl_data" = type { ptr, i64, %"struct.std::_Deque_iterator.36", %"struct.std::_Deque_iterator.36" }
%"struct.std::_Deque_iterator.36" = type { ptr, ptr, ptr, ptr }
%"class.rocksdb::(anonymous namespace)::Standard128RibbonBitsBuilder" = type { %"class.rocksdb::(anonymous namespace)::XXPH3FilterBitsBuilder", double, ptr, %"class.rocksdb::(anonymous namespace)::FastLocalBloomBitsBuilder" }

; Function Attrs: mustprogress nounwind uwtable
define internal void @_ZN7rocksdb12_GLOBAL__N_125FastLocalBloomBitsBuilderD2Ev(ptr noundef nonnull align 8 dereferenceable(292) %this) unnamed_addr #1 align 2 {
entry:
  %this.addr = alloca ptr, align 8
  store ptr %this, ptr %this.addr, align 8
  %this1 = load ptr, ptr %this.addr, align 8
  call void @_ZN7rocksdb12_GLOBAL__N_122XXPH3FilterBitsBuilderD2Ev(ptr noundef nonnull align 8 dereferenceable(288) %this1) #3
  ret void
}

; Function Attrs: mustprogress nounwind uwtable
define internal void @_ZN7rocksdb12_GLOBAL__N_128Standard128RibbonBitsBuilderD2Ev(ptr noundef nonnull align 8 dereferenceable(600) %this) unnamed_addr #1 align 2 {
entry:
  %this.addr = alloca ptr, align 8
  store ptr %this, ptr %this.addr, align 8
  %this1 = load ptr, ptr %this.addr, align 8
  store ptr getelementptr inbounds ({ [13 x ptr] }, ptr @_ZTVN7rocksdb12_GLOBAL__N_128Standard128RibbonBitsBuilderE, i32 0, i32 0, i32 2), ptr %this1, align 8
  %bloom_fallback_ = getelementptr inbounds %"class.rocksdb::(anonymous namespace)::Standard128RibbonBitsBuilder", ptr %this1, i32 0, i32 3
  call void @_ZN7rocksdb12_GLOBAL__N_125FastLocalBloomBitsBuilderD2Ev(ptr noundef nonnull align 8 dereferenceable(292) %bloom_fallback_) #3
  call void @_ZN7rocksdb12_GLOBAL__N_122XXPH3FilterBitsBuilderD2Ev(ptr noundef nonnull align 8 dereferenceable(288) %this1) #3
  ret void
}

; Function Attrs: mustprogress nounwind uwtable
define internal void @_ZN7rocksdb12_GLOBAL__N_128Standard128RibbonBitsBuilderD0Ev(ptr noundef nonnull align 8 dereferenceable(600) %this) unnamed_addr #1 align 2 {
entry:
  %this.addr = alloca ptr, align 8
  store ptr %this, ptr %this.addr, align 8
  %this1 = load ptr, ptr %this.addr, align 8
  call void @_ZN7rocksdb12_GLOBAL__N_128Standard128RibbonBitsBuilderD2Ev(ptr noundef nonnull align 8 dereferenceable(600) %this1) #3
  call void @_ZdlPv(ptr noundef %this1) #21
  ret void
}