; Function Attrs: mustprogress nounwind uwtable
define internal void @_ZN7rocksdb12_GLOBAL__N_128Standard128RibbonBitsBuilderD0Ev(ptr noundef nonnull align 8 dereferenceable(600) %this) unnamed_addr #0 align 2 {
entry:
  store ptr getelementptr inbounds ({ [13 x ptr] }, ptr @_ZTVN7rocksdb12_GLOBAL__N_128Standard128RibbonBitsBuilderE, i64 0, i32 0, i64 2), ptr %this, align 8
  %bloom_fallback_.i = getelementptr inbounds i8, ptr %this, i64 304
  tail call void @_ZN7rocksdb12_GLOBAL__N_122XXPH3FilterBitsBuilderD2Ev(ptr noundef nonnull align 8 dereferenceable(288) %bloom_fallback_.i) #32
  tail call void @_ZN7rocksdb12_GLOBAL__N_122XXPH3FilterBitsBuilderD2Ev(ptr noundef nonnull align 8 dereferenceable(288) %this) #32
  tail call void @_ZdlPv(ptr noundef nonnull %this) #31
  ret void
}